target datalayout = "e-m:e-p270:32:32-p271:32:32-p272:64:64-i64:64-i128:128-f80:128-n8:16:32:64-S128"
target triple = "x86_64-pc-linux-gnu"

%struct.DdManager = type { %struct.DdNode, ptr, ptr, ptr, ptr, ptr, ptr, ptr, i32, i32, double, double, double, i32, i32, i32, i32, i32, i32, ptr, ptr, %struct.DdSubtable, i32, i32, i32, i32, i32, i32, i32, double, i32, i32, i32, ptr, i64, double, i32, ptr, ptr, ptr, ptr, ptr, ptr, ptr, i32, ptr, ptr, ptr, ptr, ptr, ptr, i32, i32, i32, double, i32, i32, i32, i32, double, double, i32, i32, i32, i32, i32, i32, i32, i32, i32, ptr, ptr, i32, i32, i32, i32, i32, i32, ptr, ptr, ptr, ptr, ptr, ptr, ptr, ptr, i32, i64, i64, i64, i32, i64, i64, double, double, double, double, double, double, i32, ptr, ptr, i64 }
%struct.DdNode = type { i32, i32, ptr, %union.anon, i64 }
%union.anon = type { %struct.DdChildren }
%struct.DdChildren = type { ptr, ptr }
%struct.DdSubtable = type { ptr, i32, i32, i32, i32, i32, i32, i32, i32, i32, i32, i32 }

@.str = private unnamed_addr constant [64 x i8] c"Error: The third argument of Cudd_CProjection should be a cube\0A\00", align 1

; Function Attrs: nounwind uwtable
define ptr @Cudd_CProjection(ptr noundef %0, ptr noundef %1, ptr noundef %2) #0 {
  %4 = alloca ptr, align 8
  %5 = alloca ptr, align 8
  %6 = alloca ptr, align 8
  %7 = alloca ptr, align 8
  %8 = alloca ptr, align 8
  %9 = alloca ptr, align 8
  store ptr %0, ptr %5, align 8
  store ptr %1, ptr %6, align 8
  store ptr %2, ptr %7, align 8
  %10 = load ptr, ptr %5, align 8
  %11 = load ptr, ptr %7, align 8
  %12 = call i32 @cuddCheckCube(ptr noundef %10, ptr noundef %11)
  %13 = icmp eq i32 %12, 0
  br i1 %13, label %14, label %21

14:                                               ; preds = %3
  %15 = load ptr, ptr %5, align 8
  %16 = getelementptr inbounds %struct.DdManager, ptr %15, i32 0, i32 85
  %17 = load ptr, ptr %16, align 8
  %18 = call i32 (ptr, ptr, ...) @fprintf(ptr noundef %17, ptr noundef @.str) #6
  %19 = load ptr, ptr %5, align 8
  %20 = getelementptr inbounds %struct.DdManager, ptr %19, i32 0, i32 86
  store i32 4, ptr %20, align 8
  store ptr null, ptr %4, align 8
  br label %73

21:                                               ; preds = %3
  %22 = load ptr, ptr %5, align 8
  %23 = load ptr, ptr %7, align 8
  %24 = call ptr @Cudd_Support(ptr noundef %22, ptr noundef %23)
  store ptr %24, ptr %9, align 8
  %25 = load ptr, ptr %9, align 8
  %26 = icmp eq ptr %25, null
  br i1 %26, label %27, label %28

27:                                               ; preds = %21
  store ptr null, ptr %4, align 8
  br label %73

28:                                               ; preds = %21
  %29 = load ptr, ptr %9, align 8
  %30 = ptrtoint ptr %29 to i64
  %31 = and i64 %30, -2
  %32 = inttoptr i64 %31 to ptr
  %33 = getelementptr inbounds %struct.DdNode, ptr %32, i32 0, i32 1
  %34 = load i32, ptr %33, align 4
  %35 = add i32 %34, 1
  store i32 %35, ptr %33, align 4
  br label %36

36:                                               ; preds = %44, %28
  %37 = load ptr, ptr %5, align 8
  %38 = getelementptr inbounds %struct.DdManager, ptr %37, i32 0, i32 55
  store i32 0, ptr %38, align 8
  %39 = load ptr, ptr %5, align 8
  %40 = load ptr, ptr %6, align 8
  %41 = load ptr, ptr %7, align 8
  %42 = load ptr, ptr %9, align 8
  %43 = call ptr @cuddCProjectionRecur(ptr noundef %39, ptr noundef %40, ptr noundef %41, ptr noundef %42)
  store ptr %43, ptr %8, align 8
  br label %44

44:                                               ; preds = %36
  %45 = load ptr, ptr %5, align 8
  %46 = getelementptr inbounds %struct.DdManager, ptr %45, i32 0, i32 55
  %47 = load i32, ptr %46, align 8
  %48 = icmp eq i32 %47, 1
  br i1 %48, label %36, label %49, !llvm.loop !17

49:                                               ; preds = %44
  %50 = load ptr, ptr %8, align 8
  %51 = icmp eq ptr %50, null
  br i1 %51, label %52, label %55

52:                                               ; preds = %49
  %53 = load ptr, ptr %5, align 8
  %54 = load ptr, ptr %9, align 8
  call void @Cudd_RecursiveDeref(ptr noundef %53, ptr noundef %54)
  store ptr null, ptr %4, align 8
  br label %73

55:                                               ; preds = %49
  %56 = load ptr, ptr %8, align 8
  %57 = ptrtoint ptr %56 to i64
  %58 = and i64 %57, -2
  %59 = inttoptr i64 %58 to ptr
  %60 = getelementptr inbounds %struct.DdNode, ptr %59, i32 0, i32 1
  %61 = load i32, ptr %60, align 4
  %62 = add i32 %61, 1
  store i32 %62, ptr %60, align 4
  %63 = load ptr, ptr %5, align 8
  %64 = load ptr, ptr %9, align 8
  call void @Cudd_RecursiveDeref(ptr noundef %63, ptr noundef %64)
  %65 = load ptr, ptr %8, align 8
  %66 = ptrtoint ptr %65 to i64
  %67 = and i64 %66, -2
  %68 = inttoptr i64 %67 to ptr
  %69 = getelementptr inbounds %struct.DdNode, ptr %68, i32 0, i32 1
  %70 = load i32, ptr %69, align 4
  %71 = add i32 %70, -1
  store i32 %71, ptr %69, align 4
  %72 = load ptr, ptr %8, align 8
  store ptr %72, ptr %4, align 8
  br label %73

73:                                               ; preds = %55, %52, %27, %14
  %74 = load ptr, ptr %4, align 8
  ret ptr %74
}