; Function Attrs: nounwind uwtable
define ptr @Cudd_CProjection(ptr noundef %0, ptr noundef %1, ptr noundef %2) #0 {
  %4 = tail call i32 @cuddCheckCube(ptr noundef %0, ptr noundef %2) #6
  %5 = icmp eq i32 %4, 0
  br i1 %5, label %6, label %11

6:                                                ; preds = %3
  %7 = getelementptr inbounds nuw i8, ptr %0, i64 616
  %8 = load ptr, ptr %7, align 8
  %9 = tail call i64 @fwrite(ptr nonnull @.str, i64 63, i64 1, ptr %8)
  %10 = getelementptr inbounds nuw i8, ptr %0, i64 624
  store i32 4, ptr %10, align 8
  br label %38

11:                                               ; preds = %3
  %12 = tail call ptr @Cudd_Support(ptr noundef %0, ptr noundef %2) #6
  %13 = icmp eq ptr %12, null
  br i1 %13, label %38, label %14

14:                                               ; preds = %11
  %15 = ptrtoint ptr %12 to i64
  %16 = and i64 %15, -2
  %17 = inttoptr i64 %16 to ptr
  %18 = getelementptr inbounds nuw i8, ptr %17, i64 4
  %19 = load i32, ptr %18, align 4
  %20 = add i32 %19, 1
  store i32 %20, ptr %18, align 4
  %21 = getelementptr inbounds nuw i8, ptr %0, i64 448
  br label %22

22:                                               ; preds = %22, %14
  store i32 0, ptr %21, align 8
  %23 = tail call ptr @cuddCProjectionRecur(ptr noundef %0, ptr noundef %1, ptr noundef %2, ptr noundef nonnull %12)
  %24 = load i32, ptr %21, align 8
  %25 = icmp eq i32 %24, 1
  br i1 %25, label %22, label %26, !llvm.loop !17

26:                                               ; preds = %22
  %27 = icmp eq ptr %23, null
  br i1 %27, label %28, label %29

28:                                               ; preds = %26
  tail call void @Cudd_RecursiveDeref(ptr noundef nonnull %0, ptr noundef nonnull %12) #6
  br label %38

29:                                               ; preds = %26
  %30 = ptrtoint ptr %23 to i64
  %31 = and i64 %30, -2
  %32 = inttoptr i64 %31 to ptr
  %33 = getelementptr inbounds nuw i8, ptr %32, i64 4
  %34 = load i32, ptr %33, align 4
  %35 = add i32 %34, 1
  store i32 %35, ptr %33, align 4
  tail call void @Cudd_RecursiveDeref(ptr noundef nonnull %0, ptr noundef nonnull %12) #6
  %36 = load i32, ptr %33, align 4
  %37 = add i32 %36, -1
  store i32 %37, ptr %33, align 4
  br label %38

38:                                               ; preds = %11, %29, %28, %6
  %.0 = phi ptr [ null, %6 ], [ null, %28 ], [ %23, %29 ], [ null, %11 ]
  ret ptr %.0
}